(lp1
V00
p2
aV000
p3
aV01
p4
aV02
p5
aV03
p6
aV04
p7
aV05
p8
aV06
p9
aV07
p10
aV08
p11
aV09
p12
aV0px
p13
aV10
p14
aV100
p15
aV11
p16
aV12
p17
aV13
p18
aV14
p19
aV15
p20
aV16
p21
aV17
p22
aV18
p23
aV19
p24
aV20
p25
aV200
p26
aV2000
p27
aV2004
p28
aV2005
p29
aV2006
p30
aV2007
p31
aV2008
p32
aV2009
p33
aV2010
p34
aV2011
p35
aV2012
p36
aV2013
p37
aV21
p38
aV22
p39
aV23
p40
aV24
p41
aV25
p42
aV26
p43
aV27
p44
aV28
p45
aV29
p46
aV30
p47
aV300
p48
aV31
p49
aV32
p50
aV33
p51
aV34
p52
aV35
p53
aV350
p54
aV36
p55
aV37
p56
aV375
p57
aV38
p58
aV39
p59
aV3d
p60
aV40
p61
aV400
p62
aV42
p63
aV43
p64
aV44
p65
aV45
p66
aV46
p67
aV48
p68
aV4th
p69
aV50
p70
aV500
p71
aV55
p72
aV60
p73
aV70
p74
aV75
p75
aV80
p76
aV8217
p77
aV90
p78
aV95
p79
aV99
p80
aVability
p81
aVable
p82
aVabs
p83
aVabsolutely
p84
aVaccess
p85
aVaccessories
p86
aVaccording
p87
aVaccount
p88
aVachieve
p89
aVacid
p90
aVacids
p91
aVacne
p92
aVact
p93
aVaction
p94
aVactive
p95
aVactivities
p96
aVactivity
p97
aVactual
p98
aVactually
p99
aVad
p100
aVadapted
p101
aVadd
p102
aVadded
p103
aVadding
p104
aVaddition
p105
aVadditional
p106
aVaddress
p107
aVadds
p108
aVadjust
p109
aVads
p110
aVadult
p111
aVadults
p112
aVadvanced
p113
aVadvice
p114
aVafternoon
p115
aVage
p116
aVago
p117
aVagree
p118
aVahead
p119
aVaid
p120
aVair
p121
aVairtight
p122
aVal
p123
aValcohol
p124
aValex
p125
aVallow
p126
aVallowed
p127
aVallowing
p128
aVallows
p129
aVallrecipes
p130
aValmond
p131
aValmonds
p132
aValternative
p133
aVamazing
p134
aVamazon
p135
aVamerica
p136
aVamerican
p137
aVamericans
p138
aVamounts
p139
aVanalysis
p140
aVanderson
p141
aVandroid
p142
aVangeles
p143
aVanimal
p144
aVanimals
p145
aVannounced
p146
aVanswer
p147
aVanti
p148
aVanxiety
p149
aVapart
p150
aVapp
p151
aVapparently
p152
aVappear
p153
aVappearance
p154
aVappears
p155
aVappend
p156
aVappetizer
p157
aVapple
p158
aVapples
p159
aVapply
p160
aVapproach
p161
aVapproved
p162
aVapproximately
p163
aVapps
p164
aVapril
p165
aVarea
p166
aVareas
p167
aVaren
p168
aVarm
p169
aVarms
p170
aVarmy
p171
aVart
p172
aVarticle
p173
aVarticles
p174
aVarts
p175
aVasian
p176
aVaside
p177
aVask
p178
aVasked
p179
aVasparagus
p180
aVassociated
p181
aVassociation
p182
aVate
p183
aVathlete
p184
aVathletes
p185
aVattachment
p186
aVattack
p187
aVattempt
p188
aVattention
p189
aVaugust
p190
aVaustralia
p191
aVauthor
p192
aVavailable
p193
aVaverage
p194
aVavocado
p195
aVavoid
p196
aVaward
p197
aVaway
p198
aVawesome
p199
aVbaby
p200
aVbackground
p201
aVbacon
p202
aVbacteria
p203
aVbad
p204
aVbag
p205
aVbags
p206
aVbake
p207
aVbaked
p208
aVbaker
p209
aVbaking
p210
aVbalance
p211
aVball
p212
aVballs
p213
aVbalsamic
p214
aVbanana
p215
aVbananas
p216
aVbar
p217
aVbarbecue
p218
aVbars
p219
aVbase
p220
aVbaseball
p221
aVbased
p222
aVbasic
p223
aVbasically
p224
aVbasil
p225
aVbasis
p226
aVbasketball
p227
aVbatch
p228
aVbath
p229
aVbatter
p230
aVbattery
p231
aVbay
p232
aVbbc
p233
aVbbq
p234
aVbeach
p235
aVbean
p236
aVbeans
p237
aVbear
p238
aVbeat
p239
aVbeaten
p240
aVbeating
p241
aVbeautiful
p242
aVbeauty
p243
aVbed
p244
aVbeef
p245
aVbeer
p246
aVbegan
p247
aVbegin
p248
aVbeginning
p249
aVbegins
p250
aVbehavior
p251
aVbelieve
p252
aVbell
p253
aVbenefit
p254
aVbenefits
p255
aVberries
p256
aVberry
p257
aVbest
p258
aVbetter
p259
aVbig
p260
aVbigger
p261
aVbiggest
p262
aVbillion
p263
aVbird
p264
aVbirth
p265
aVbirthday
p266
aVbiscuits
p267
aVbit
p268
aVbite
p269
aVbites
p270
aVbits
p271
aVblack
p272
aVblend
p273
aVblended
p274
aVblender
p275
aVblock
p276
aVblog
p277
aVblogs
p278
aVblood
p279
aVblue
p280
aVblueberries
p281
aVblueberry
p282
aVboard
p283
aVbodies
p284
aVbody
p285
aVboil
p286
aVboiled
p287
aVboiling
p288
aVbone
p289
aVbook
p290
aVbooks
p291
aVboost
p292
aVboots
p293
aVborder
p294
aVborn
p295
aVboston
p296
aVbottle
p297
aVbought
p298
aVbowl
p299
aVbox
p300
aVboy
p301
aVboys
p302
aVbrain
p303
aVbrand
p304
aVbread
p305
aVbreak
p306
aVbreakfast
p307
aVbreaking
p308
aVbreast
p309
aVbreasts
p310
aVbreath
p311
aVbreathing
p312
aVbright
p313
aVbring
p314
aVbrings
p315
aVbritish
p316
aVbroccoli
p317
aVbroken
p318
aVbrooklyn
p319
aVbroth
p320
aVbrought
p321
aVbrown
p322
aVbrowned
p323
aVbrownie
p324
aVbrownies
p325
aVbrowse
p326
aVbrunch
p327
aVbrush
p328
aVbuffalo
p329
aVbuild
p330
aVbuilding
p331
aVbuilt
p332
aVbunch
p333
aVbuns
p334
aVburger
p335
aVburgers
p336
aVburn
p337
aVburning
p338
aVbusiness
p339
aVbusy
p340
aVbutter
p341
aVbuttercream
p342
aVbuttermilk
p343
aVbutton
p344
aVbuy
p345
aVbuying
p346
aVbuzz
p347
aVbuzzfeed
p348
aVca
p349
aVcabbage
p350
aVcaffeine
p351
aVcake
p352
aVcakes
p353
aVcalcium
p354
aVcalifornia
p355
aVcalled
p356
aVcalls
p357
aVcalorie
p358
aVcalories
p359
aVcame
p360
aVcamera
p361
aVcampaign
p362
aVcanada
p363
aVcancer
p364
aVcandy
p365
aVcanned
p366
aVcar
p367
aVcaramel
p368
aVcaramelized
p369
aVcarbon
p370
aVcarbs
p371
aVcard
p372
aVcardio
p373
aVcards
p374
aVcare
p375
aVcareer
p376
aVcareful
p377
aVcarefully
p378
aVcarrot
p379
aVcarrots
p380
aVcarry
p381
aVcars
p382
aVcase
p383
aVcases
p384
aVcasserole
p385
aVcast
p386
aVcat
p387
aVcatch
p388
aVcategory
p389
aVcaught
p390
aVcause
p391
aVcaused
p392
aVcauses
p393
aVcayenne
p394
aVcbssports
p395
aVcelebrate
p396
aVcelebrity
p397
aVcelery
p398
aVcell
p399
aVcells
p400
aVcenter
p401
aVcentral
p402
aVcentury
p403
aVcereal
p404
aVcertain
p405
aVcertainly
p406
aVchallenge
p407
aVchance
p408
aVchances
p409
aVchange
p410
aVchanged
p411
aVchanges
p412
aVchanging
p413
aVchannel
p414
aVcheap
p415
aVcheck
p416
aVcheddar
p417
aVcheese
p418
aVcheesecake
p419
aVchef
p420
aVchefs
p421
aVchemical
p422
aVchemicals
p423
aVcherry
p424
aVchewy
p425
aVchic
p426
aVchicago
p427
aVchicken
p428
aVchild
p429
aVchildren
p430
aVchili
p431
aVchill
p432
aVchilled
p433
aVchina
p434
aVchinese
p435
aVchip
p436
aVchips
p437
aVchocolate
p438
aVchoice
p439
aVchoices
p440
aVcholesterol
p441
aVchoose
p442
aVchop
p443
aVchopped
p444
aVchris
p445
aVchristmas
p446
aVchronic
p447
aVchunks
p448
aVcider
p449
aVcilantro
p450
aVcinnamon
p451
aVcircle
p452
aVcitrus
p453
aVcity
p454
aVclaim
p455
aVclaims
p456
aVclass
p457
aVclassic
p458
aVclean
p459
aVcleaning
p460
aVclear
p461
aVclearly
p462
aVclick
p463
aVclinical
p464
aVclock
p465
aVclose
p466
aVclothes
p467
aVclothing
p468
aVcloves
p469
aVclub
p470
aVcoach
p471
aVcoat
p472
aVcoated
p473
aVcoating
p474
aVcocktail
p475
aVcocoa
p476
aVcoconut
p477
aVcode
p478
aVcoffee
p479
aVcoke
p480
aVcold
p481
aVcollection
p482
aVcollege
p483
aVcolor
p484
aVcolored
p485
aVcolors
p486
aVcom
p487
aVcombination
p488
aVcombine
p489
aVcombined
p490
aVcome
p491
aVcomes
p492
aVcomfort
p493
aVcomfortable
p494
aVcoming
p495
aVcomment
p496
aVcomments
p497
aVcommercial
p498
aVcommon
p499
aVcommunity
p500
aVcompanies
p501
aVcompany
p502
aVcompared
p503
aVcompetition
p504
aVcomplete
p505
aVcompletely
p506
aVcomplex
p507
aVcomputer
p508
aVcomputers
p509
aVconcept
p510
aVcondition
p511
aVconditions
p512
aVconsider
p513
aVconsidered
p514
aVconsistency
p515
aVconstantly
p516
aVconsume
p517
aVconsumer
p518
aVconsumers
p519
aVconsumption
p520
aVcontact
p521
aVcontain
p522
aVcontainer
p523
aVcontains
p524
aVcontent
p525
aVcontinue
p526
aVcontract
p527
aVcontrol
p528
aVcook
p529
aVcookbook
p530
aVcooked
p531
aVcooker
p532
aVcookie
p533
aVcookies
p534
aVcooking
p535
aVcooks
p536
aVcool
p537
aVcooled
p538
aVcooling
p539
aVcopy
p540
aVcopyright
p541
aVcore
p542
aVcorn
p543
aVcorner
p544
aVcornstarch
p545
aVcost
p546
aVcosts
p547
aVcouldn
p548
aVcount
p549
aVcounter
p550
aVcountries
p551
aVcountry
p552
aVcounty
p553
aVcouple
p554
aVcourse
p555
aVcourt
p556
aVcourtesy
p557
aVcover
p558
aVcovered
p559
aVcrack
p560
aVcracked
p561
aVcracker
p562
aVcrackers
p563
aVcranberry
p564
aVcrazy
p565
aVcream
p566
aVcreamy
p567
aVcreate
p568
aVcreated
p569
aVcreating
p570
aVcreative
p571
aVcredit
p572
aVcrisp
p573
aVcrispy
p574
aVcross
p575
aVcrowd
p576
aVcrumb
p577
aVcrumbs
p578
aVcrunch
p579
aVcrunchy
p580
aVcrushed
p581
aVcrust
p582
aVcubes
p583
aVcuisine
p584
aVculinary
p585
aVculture
p586
aVcup
p587
aVcupcake
p588
aVcupcakes
p589
aVcups
p590
aVcure
p591
aVcures
p592
aVcurrent
p593
aVcurrently
p594
aVcurry
p595
aVcustard
p596
aVcustomers
p597
aVcut
p598
aVcute
p599
aVcuts
p600
aVcutting
p601
aVdad
p602
aVdaily
p603
aVdairy
p604
aVdamage
p605
aVdamascus
p606
aVdance
p607
aVdangerous
p608
aVdark
p609
aVdata
p610
aVdate
p611
aVdaughter
p612
aVdavid
p613
aVday
p614
aVdays
p615
aVdead
p616
aVdeal
p617
aVdeath
p618
aVdecember
p619
aVdecide
p620
aVdecided
p621
aVdecision
p622
aVdecoration
p623
aVdeep
p624
aVdefinitely
p625
aVdegree
p626
aVdegrees
p627
aVdelicious
p628
aVdepartment
p629
aVdepending
p630
aVdepression
p631
aVdesign
p632
aVdesigned
p633
aVdesigner
p634
aVdesigners
p635
aVdesigns
p636
aVdesired
p637
aVdespite
p638
aVdessert
p639
aVdesserts
p640
aVdetails
p641
aVdevelop
p642
aVdeveloped
p643
aVdeveloping
p644
aVdevelopment
p645
aVdevice
p646
aVdevices
p647
aVdiabetes
p648
aVdiced
p649
aVdid
p650
aVdidn
p651
aVdie
p652
aVdiet
p653
aVdietary
p654
aVdiets
p655
aVdifference
p656
aVdifferent
p657
aVdifficult
p658
aVdigestive
p659
aVdigital
p660
aVdinner
p661
aVdip
p662
aVdipped
p663
aVdipping
p664
aVdirections
p665
aVdirectly
p666
aVdirector
p667
aVdiscover
p668
aVdiscovered
p669
aVdisease
p670
aVdiseases
p671
aVdish
p672
aVdishes
p673
aVdisorder
p674
aVdisorders
p675
aVdisplay
p676
aVdiv
p677
aVdivide
p678
aVdiy
p679
aVdoctor
p680
aVdoctors
p681
aVdocument
p682
aVdoes
p683
aVdoesn
p684
aVdog
p685
aVdogs
p686
aVdoing
p687
aVdollars
p688
aVdon
p689
aVdoor
p690
aVdouble
p691
aVdough
p692
aVdownload
p693
aVdozen
p694
aVdr
p695
aVdrain
p696
aVdream
p697
aVdreams
p698
aVdress
p699
aVdresses
p700
aVdressing
p701
aVdried
p702
aVdrink
p703
aVdrinking
p704
aVdrinks
p705
aVdrive
p706
aVdriving
p707
aVdrizzle
p708
aVdrop
p709
aVdrops
p710
aVdrug
p711
aVdrugs
p712
aVdry
p713
aVdust
p714
aVearlier
p715
aVearly
p716
aVearth
p717
aVease
p718
aVeasier
p719
aVeasily
p720
aVeast
p721
aVeasy
p722
aVeat
p723
aVeaten
p724
aVeating
p725
aVeats
p726
aVedge
p727
aVedges
p728
aVedition
p729
aVeditor
p730
aVeducation
p731
aVeffect
p732
aVeffective
p733
aVeffects
p734
aVeffort
p735
aVegg
p736
aVeggs
p737
aVel
p738
aVelectric
p739
aVem
p740
aVemail
p741
aVemotional
p742
aVen
p743
aVend
p744
aVended
p745
aVends
p746
aVenergy
p747
aVengine
p748
aVengland
p749
aVenglish
p750
aVenhanced
p751
aVenjoy
p752
aVenjoyed
p753
aVensure
p754
aVenter
p755
aVentertainment
p756
aVentire
p757
aVentirely
p758
aVentry
p759
aVenvironment
p760
aVepic
p761
aVequal
p762
aVequipment
p763
aVescape
p764
aVespecially
p765
aVespn
p766
aVessential
p767
aVet
p768
aVeurope
p769
aVevening
p770
aVevenly
p771
aVevent
p772
aVevents
p773
aVeventually
p774
aVeveryday
p775
aVevidence
p776
aVexactly
p777
aVexample
p778
aVexcellent
p779
aVexcess
p780
aVexcited
p781
aVexciting
p782
aVexercise
p783
aVexercises
p784
aVexpect
p785
aVexpected
p786
aVexpensive
p787
aVexperience
p788
aVexperiment
p789
aVexpert
p790
aVexperts
p791
aVexplain
p792
aVexplains
p793
aVextra
p794
aVextract
p795
aVextreme
p796
aVextremely
p797
aVeye
p798
aVeyes
p799
aVfabulous
p800
aVface
p801
aVfacebook
p802
aVfact
p803
aVfactor
p804
aVfactors
p805
aVfacts
p806
aVfail
p807
aVfair
p808
aVfall
p809
aVfalse
p810
aVfamily
p811
aVfamous
p812
aVfan
p813
aVfancy
p814
aVfans
p815
aVfantastic
p816
aVfar
p817
aVfarm
p818
aVfashion
p819
aVfast
p820
aVfaster
p821
aVfat
p822
aVfather
p823
aVfats
p824
aVfatty
p825
aVfavorite
p826
aVfavorites
p827
aVfavourite
p828
aVfda
p829
aVfear
p830
aVfeature
p831
aVfeatured
p832
aVfeatures
p833
aVfeaturing
p834
aVfeb
p835
aVfebruary
p836
aVfederal
p837
aVfeed
p838
aVfeel
p839
aVfeeling
p840
aVfeels
p841
aVfeet
p842
aVfelt
p843
aVfemale
p844
aVfiber
p845
aVfield
p846
aVfight
p847
aVfighting
p848
aVfigure
p849
aVfiled
p850
aVfilled
p851
aVfilling
p852
aVfilm
p853
aVfinal
p854
aVfinally
p855
aVfinancial
p856
aVfinding
p857
aVfine
p858
aVfinely
p859
aVfinger
p860
aVfingers
p861
aVfinish
p862
aVfinished
p863
aVfirm
p864
aVfish
p865
aVfit
p866
aVfitness
p867
aVfitted
p868
aVfix
p869
aVflakes
p870
aVflash
p871
aVflashvars
p872
aVflat
p873
aVflavor
p874
aVflavored
p875
aVflavors
p876
aVflavour
p877
aVflickr
p878
aVflight
p879
aVflip
p880
aVfloat
p881
aVfloor
p882
aVflorida
p883
aVflour
p884
aVflour1
p885
aVflu
p886
aVfluffy
p887
aVfocus
p888
aVfoil
p889
aVfold
p890
aVfollow
p891
aVfollowed
p892
aVfollowing
p893
aVfont
p894
aVfood
p895
aVfoods
p896
aVfoot
p897
aVfootball
p898
aVforce
p899
aVforever
p900
aVforget
p901
aVfork
p902
aVform
p903
aVforms
p904
aVforward
p905
aVfox
p906
aVfrance
p907
aVfrancisco
p908
aVfree
p909
aVfreeze
p910
aVfreezer
p911
aVfrench
p912
aVfrequently
p913
aVfresh
p914
aVfreshly
p915
aVfriday
p916
aVfridge
p917
aVfried
p918
aVfriend
p919
aVfriendly
p920
aVfriends
p921
aVfries
p922
aVfrosting
p923
aVfrozen
p924
aVfruit
p925
aVfruits
p926
aVfry
p927
aVfrying
p928
aVfudge
p929
aVfuel
p930
aVfully
p931
aVfun
p932
aVfunction
p933
aVfunny
p934
aVfuture
p935
aVgadgets
p936
aVgain
p937
aVgallery
p938
aVgame
p939
aVgames
p940
aVganache
p941
aVgarden
p942
aVgarlic
p943
aVgarnish
p944
aVgas
p945
aVgave
p946
aVgeneral
p947
aVgenerally
p948
aVgently
p949
aVgerman
p950
aVgermany
p951
aVgets
p952
aVgetting
p953
aVgetty
p954
aVgiant
p955
aVgift
p956
aVginger
p957
aVgirl
p958
aVgirls
p959
aVgiven
p960
aVgives
p961
aVgiving
p962
aVglass
p963
aVglasses
p964
aVglaze
p965
aVglobal
p966
aVgluten
p967
aVgoal
p968
aVgoals
p969
aVgoat
p970
aVgod
p971
aVgoes
p972
aVgoing
p973
aVgold
p974
aVgolden
p975
aVgolf
p976
aVgone
p977
aVgood
p978
aVgoodness
p979
aVgooey
p980
aVgoogle
p981
aVgorgeous
p982
aVgot
p983
aVgourmet
p984
aVgovernment
p985
aVgrab
p986
aVgrade
p987
aVgradually
p988
aVgraham
p989
aVgrain
p990
aVgrams
p991
aVgrand
p992
aVgranola
p993
aVgranulated
p994
aVgrated
p995
aVgravy
p996
aVgrease
p997
aVgreased
p998
aVgreat
p999
aVgreater
p1000
aVgreatest
p1001
aVgreek
p1002
aVgreen
p1003
aVgreens
p1004
aVgrill
p1005
aVgrilled
p1006
aVgrocery
p1007
aVground
p1008
aVgroup
p1009
aVgroups
p1010
aVgrow
p1011
aVgrowing
p1012
aVgrown
p1013
aVgrowth
p1014
aVguess
p1015
aVguests
p1016
aVguide
p1017
aVguy
p1018
aVguys
p1019
aVgym
p1020
aVhabit
p1021
aVhabits
p1022
aVhair
p1023
aVhalf
p1024
aVhalloween
p1025
aVham
p1026
aVhand
p1027
aVhandful
p1028
aVhandle
p1029
aVhands
p1030
aVhappen
p1031
aVhappened
p1032
aVhappens
p1033
aVhappiness
p1034
aVhappy
p1035
aVhard
p1036
aVhate
p1037
aVhaven
p1038
aVhaving
p1039
aVhead
p1040
aVheader
p1041
aVheadlines
p1042
aVhealing
p1043
aVhealth
p1044
aVhealthier
p1045
aVhealthy
p1046
aVhear
p1047
aVheard
p1048
aVheart
p1049
aVheat
p1050
aVheated
p1051
aVheavy
p1052
aVheels
p1053
aVheight
p1054
aVheld
p1055
aVhelp
p1056
aVhelpful
p1057
aVhelping
p1058
aVhelps
p1059
aVherb
p1060
aVherbs
p1061
aVhey
p1062
aVhi
p1063
aVhidden
p1064
aVhigh
p1065
aVhigher
p1066
aVhighest
p1067
aVhighly
p1068
aVhistory
p1069
aVhit
p1070
aVhits
p1071
aVhockey
p1072
aVhold
p1073
aVholding
p1074
aVholds
p1075
aVhole
p1076
aVholiday
p1077
aVhome
p1078
aVhomemade
p1079
aVhoney
p1080
aVhope
p1081
aVhospital
p1082
aVhost
p1083
aVhot
p1084
aVhotel
p1085
aVhour
p1086
aVhours
p1087
aVhouse
p1088
aVhover
p1089
aVhref
p1090
aVhtml
p1091
aVhttp
p1092
aVhuge
p1093
aVhuman
p1094
aVhumans
p1095
aVhumor
p1096
aVhundreds
p1097
aVhungry
p1098
aVhusband
p1099
aVice
p1100
aVicing
p1101
aVid
p1102
aVidea
p1103
aVideal
p1104
aVideas
p1105
aVillness
p1106
aVillustrated
p1107
aVimage
p1108
aVimages
p1109
aVimagine
p1110
aVimg
p1111
aVimmediately
p1112
aVimmune
p1113
aVimpact
p1114
aVimportant
p1115
aVimpossible
p1116
aVimpressive
p1117
aVimprove
p1118
aVinch
p1119
aVinches
p1120
aVinclude
p1121
aVincluded
p1122
aVincludes
p1123
aVincluding
p1124
aVincorporated
p1125
aVincrease
p1126
aVincreased
p1127
aVincreases
p1128
aVincredible
p1129
aVincredibly
p1130
aVindex
p1131
aVindia
p1132
aVindian
p1133
aVindie
p1134
aVindividual
p1135
aVindividuals
p1136
aVindustry
p1137
aVinfo
p1138
aVinfographic
p1139
aVinformation
p1140
aVingredient
p1141
aVingredients
p1142
aVinjury
p1143
aVinner
p1144
aVinnovation
p1145
aVinserted
p1146
aVinside
p1147
aVinsidershealth
p1148
aVinspiration
p1149
aVinspired
p1150
aVinstant
p1151
aVinstead
p1152
aVinstitute
p1153
aVinstructions
p1154
aVintake
p1155
aVintense
p1156
aVinterested
p1157
aVinteresting
p1158
aVinternational
p1159
aVinternet
p1160
aVinterview
p1161
aVinvolved
p1162
aVipad
p1163
aViphone
p1164
aViron
p1165
aVisland
p1166
aVisn
p1167
aVissue
p1168
aVissues
p1169
aVitalian
p1170
aVitaly
p1171
aVitem
p1172
aVitems
p1173
aVjack
p1174
aVjacket
p1175
aVjacobs
p1176
aVjam
p1177
aVjames
p1178
aVjan
p1179
aVjanuary
p1180
aVjapan
p1181
aVjapanese
p1182
aVjar
p1183
aVjeans
p1184
aVjelly
p1185
aVjersey
p1186
aVjessica
p1187
aVjob
p1188
aVjobs
p1189
aVjoe
p1190
aVjohn
p1191
aVjoin
p1192
aVjokes
p1193
aVjournal
p1194
aVjoy
p1195
aVjpg
p1196
aVjuice
p1197
aVjuices
p1198
aVjuly
p1199
aVjump
p1200
aVjune
p1201
aVjust
p1202
aVkate
p1203
aVkeeping
p1204
aVkeeps
p1205
aVkept
p1206
aVkey
p1207
aVkick
p1208
aVkid
p1209
aVkids
p1210
aVkill
p1211
aVkind
p1212
aVkinds
p1213
aVking
p1214
aVkitchen
p1215
aVknead
p1216
aVknee
p1217
aVknew
p1218
aVknife
p1219
aVknow
p1220
aVknowledge
p1221
aVknown
p1222
aVknows
p1223
aVkosher
p1224
aVla
p1225
aVlack
p1226
aVladies
p1227
aVlady
p1228
aVland
p1229
aVlanguage
p1230
aVlarge
p1231
aVlarger
p1232
aVlargest
p1233
aVlasagna
p1234
aVlate
p1235
aVlater
p1236
aVlatest
p1237
aVlaunch
p1238
aVlaw
p1239
aVlay
p1240
aVlayer
p1241
aVlayers
p1242
aVlb
p1243
aVlead
p1244
aVleading
p1245
aVleaf
p1246
aVleague
p1247
aVlean
p1248
aVlearn
p1249
aVlearned
p1250
aVlearning
p1251
aVleather
p1252
aVleave
p1253
aVleaves
p1254
aVleaving
p1255
aVled
p1256
aVleft
p1257
aVleftover
p1258
aVleftovers
p1259
aVleg
p1260
aVlegal
p1261
aVlegs
p1262
aVlemon
p1263
aVlength
p1264
aVlet
p1265
aVlets
p1266
aVlettuce
p1267
aVlevel
p1268
aVlevels
p1269
aVlid
p1270
aVlife
p1271
aVlifestyle
p1272
aVlift
p1273
aVlight
p1274
aVlightly
p1275
aVlike
p1276
aVliked
p1277
aVlikely
p1278
aVlikes
p1279
aVlime
p1280
aVlimited
p1281
aVline
p1282
aVlined
p1283
aVlines
p1284
aVlink
p1285
aVlinked
p1286
aVlinks
p1287
aVliquid
p1288
aVlist
p1289
aVlists
p1290
aVlittle
p1291
aVlive
p1292
aVliver
p1293
aVlives
p1294
aVliving
p1295
aVll
p1296
aVloaded
p1297
aVloaf
p1298
aVlocal
p1299
aVlocation
p1300
aVlog
p1301
aVlondon
p1302
aVlong
p1303
aVlonger
p1304
aVlook
p1305
aVlooked
p1306
aVlooking
p1307
aVlooks
p1308
aVlos
p1309
aVlose
p1310
aVlosing
p1311
aVloss
p1312
aVlost
p1313
aVlot
p1314
aVlots
p1315
aVlove
p1316
aVloved
p1317
aVlovely
p1318
aVloves
p1319
aVlow
p1320
aVlower
p1321
aVluck
p1322
aVlucky
p1323
aVlunch
p1324
aVmac
p1325
aVmacaroni
p1326
aVmachine
p1327
aVmachines
p1328
aVmagazine
p1329
aVmagic
p1330
aVmail
p1331
aVmain
p1332
aVmaintain
p1333
aVmajor
p1334
aVmake
p1335
aVmaker
p1336
aVmakes
p1337
aVmakeup
p1338
aVmaking
p1339
aVmale
p1340
aVman
p1341
aVmanage
p1342
aVmanagement
p1343
aVmaple
p1344
aVmaps
p1345
aVmarch
p1346
aVmargin
p1347
aVmarijuana
p1348
aVmark
p1349
aVmarket
p1350
aVmarketing
p1351
aVmarshmallow
p1352
aVmarshmallows
p1353
aVmartha
p1354
aVmashed
p1355
aVmass
p1356
aVmatch
p1357
aVmaterial
p1358
aVmaterials
p1359
aVmatter
p1360
aVmaybe
p1361
aVmayonnaise
p1362
aVmeal
p1363
aVmeals
p1364
aVmean
p1365
aVmeans
p1366
aVmeant
p1367
aVmeasure
p1368
aVmeasuring
p1369
aVmeat
p1370
aVmeatballs
p1371
aVmeats
p1372
aVmedal
p1373
aVmedia
p1374
aVmedical
p1375
aVmedicine
p1376
aVmedium
p1377
aVmeet
p1378
aVmeeting
p1379
aVmelt
p1380
aVmelted
p1381
aVmember
p1382
aVmembers
p1383
aVmemory
p1384
aVmen
p1385
aVmental
p1386
aVmention
p1387
aVmentioned
p1388
aVmenu
p1389
aVmess
p1390
aVmessage
p1391
aVmet
p1392
aVmetal
p1393
aVmethod
p1394
aVmethods
p1395
aVmexican
p1396
aVmg
p1397
aVmichael
p1398
aVmicrosoft
p1399
aVmicrowave
p1400
aVmid
p1401
aVmiddle
p1402
aVmike
p1403
aVmiles
p1404
aVmilitary
p1405
aVmilk
p1406
aVmillion
p1407
aVmin
p1408
aVminced
p1409
aVmind
p1410
aVmini
p1411
aVmins
p1412
aVmint
p1413
aVminute
p1414
aVminutes
p1415
aVmiss
p1416
aVmissing
p1417
aVmix
p1418
aVmixed
p1419
aVmixer
p1420
aVmixing
p1421
aVmixture
p1422
aVmjs538
p1423
aVml
p1424
aVmobile
p1425
aVmodel
p1426
aVmodels
p1427
aVmodern
p1428
aVmoist
p1429
aVmom
p1430
aVmoment
p1431
aVmoments
p1432
aVmonday
p1433
aVmoney
p1434
aVmonth
p1435
aVmonths
p1436
aVmood
p1437
aVmorning
p1438
aVmother
p1439
aVmotion
p1440
aVmouse
p1441
aVmousse
p1442
aVmouth
p1443
aVmoved
p1444
aVmovement
p1445
aVmovie
p1446
aVmovies
p1447
aVmoving
p1448
aVmozzarella
p1449
aVmr
p1450
aVmuffin
p1451
aVmuffins
p1452
aVmultiple
p1453
aVmuscle
p1454
aVmuscles
p1455
aVmushroom
p1456
aVmushrooms
p1457
aVmusic
p1458
aVmustard
p1459
aVnail
p1460
aVnamed
p1461
aVnames
p1462
aVnanny
p1463
aVnation
p1464
aVnational
p1465
aVnatural
p1466
aVnaturally
p1467
aVnature
p1468
aVnav
p1469
aVnba
p1470
aVnear
p1471
aVnearly
p1472
aVnecessary
p1473
aVneck
p1474
aVneed
p1475
aVneeded
p1476
aVneeds
p1477
aVnegative
p1478
aVnet
p1479
aVnetwork
p1480
aVnew
p1481
aVnews
p1482
aVnfl
p1483
aVnhl
p1484
aVnice
p1485
aVnight
p1486
aVnon
p1487
aVnoodles
p1488
aVnormal
p1489
aVnormally
p1490
aVnorth
p1491
aVnose
p1492
aVnote
p1493
aVnotes
p1494
aVnotice
p1495
aVnoticed
p1496
aVnovember
p1497
aVnsfw
p1498
aVnull
p1499
aVnumber
p1500
aVnumbers
p1501
aVnutella
p1502
aVnutmeg
p1503
aVnutrients
p1504
aVnutrition
p1505
aVnutritional
p1506
aVnuts
p1507
aVoatmeal
p1508
aVoats
p1509
aVobama
p1510
aVobesity
p1511
aVobviously
p1512
aVoccasionally
p1513
aVoctober
p1514
aVoffer
p1515
aVoffers
p1516
aVoffice
p1517
aVofficial
p1518
aVoh
p1519
aVoil
p1520
aVoils
p1521
aVok
p1522
aVokay
p1523
aVold
p1524
aVolder
p1525
aVolive
p1526
aVolympic
p1527
aVolympics
p1528
aVomega
p1529
aVones
p1530
aVonion
p1531
aVonions
p1532
aVonline
p1533
aVopen
p1534
aVopened
p1535
aVopening
p1536
aVopinion
p1537
aVopportunity
p1538
aVoption
p1539
aVoptional
p1540
aVoptions
p1541
aVorange
p1542
aVorder
p1543
aVoregano
p1544
aVoreo
p1545
aVorg
p1546
aVorganic
p1547
aVoriginal
p1548
aVoriginally
p1549
aVounce
p1550
aVounces
p1551
aVoutfit
p1552
aVoutside
p1553
aVoven
p1554
aVoverall
p1555
aVovernight
p1556
aVowner
p1557
aVoz
p1558
aVpack
p1559
aVpackage
p1560
aVpacked
p1561
aVpadding
p1562
aVpage
p1563
aVpages
p1564
aVpaid
p1565
aVpain
p1566
aVpaint
p1567
aVpair
p1568
aVpan
p1569
aVpancake
p1570
aVpancakes
p1571
aVpans
p1572
aVpants
p1573
aVpaper
p1574
aVparams
p1575
aVparchment
p1576
aVparents
p1577
aVparis
p1578
aVpark
p1579
aVparmesan
p1580
aVparsley
p1581
aVparticular
p1582
aVparticularly
p1583
aVpartner
p1584
aVparts
p1585
aVparty
p1586
aVpass
p1587
aVpassword
p1588
aVpast
p1589
aVpasta
p1590
aVpaste
p1591
aVpastry
p1592
aVpat
p1593
aVpatient
p1594
aVpatients
p1595
aVpattern
p1596
aVpaul
p1597
aVpay
p1598
aVpdf
p1599
aVpeaches
p1600
aVpeanut
p1601
aVpeanuts
p1602
aVpeas
p1603
aVpecan
p1604
aVpecans
p1605
aVpeel
p1606
aVpeeled
p1607
aVpeople
p1608
aVpepper
p1609
aVpeppermint
p1610
aVpeppers
p1611
aVpercent
p1612
aVperfect
p1613
aVperfectly
p1614
aVperform
p1615
aVperformance
p1616
aVperiod
p1617
aVperson
p1618
aVpersonal
p1619
aVpesto
p1620
aVpeter
p1621
aVphone
p1622
aVphones
p1623
aVphoto
p1624
aVphotograph
p1625
aVphotography
p1626
aVphotos
p1627
aVphysical
p1628
aVpick
p1629
aVpicked
p1630
aVpics
p1631
aVpicture
p1632
aVpictures
p1633
aVpie
p1634
aVpiece
p1635
aVpieces
p1636
aVpies
p1637
aVpin
p1638
aVpinch
p1639
aVpineapple
p1640
aVpink
p1641
aVpizza
p1642
aVplace
p1643
aVplaced
p1644
aVplaces
p1645
aVplain
p1646
aVplan
p1647
aVplanning
p1648
aVplans
p1649
aVplant
p1650
aVplastic
p1651
aVplate
p1652
aVplay
p1653
aVplayed
p1654
aVplayer
p1655
aVplayers
p1656
aVplaying
p1657
aVplays
p1658
aVplenty
p1659
aVplus
p1660
aVpm
p1661
aVpng
p1662
aVpoint
p1663
aVpoints
p1664
aVpolice
p1665
aVpolicy
p1666
aVpoor
p1667
aVpop
p1668
aVpopcorn
p1669
aVpops
p1670
aVpopular
p1671
aVpopulation
p1672
aVpork
p1673
aVportion
p1674
aVposition
p1675
aVpositive
p1676
aVpossible
p1677
aVpossibly
p1678
aVpost
p1679
aVposted
p1680
aVposts
p1681
aVpot
p1682
aVpotato
p1683
aVpotatoes
p1684
aVpotential
p1685
aVpound
p1686
aVpounds
p1687
aVpour
p1688
aVpowder
p1689
aVpowder1
p1690
aVpowdered
p1691
aVpower
p1692
aVpowered
p1693
aVpowerful
p1694
aVpractice
p1695
aVpre
p1696
aVprefer
p1697
aVpreheat
p1698
aVprep
p1699
aVpreparation
p1700
aVprepare
p1701
aVprepared
p1702
aVprescription
p1703
aVpresent
p1704
aVpresident
p1705
aVpress
p1706
aVpressure
p1707
aVpretty
p1708
aVpretzel
p1709
aVpretzels
p1710
aVprevent
p1711
aVprevention
p1712
aVprevious
p1713
aVpreviously
p1714
aVprice
p1715
aVprint
p1716
aVprivacy
p1717
aVprivate
p1718
aVpro
p1719
aVprobably
p1720
aVproblem
p1721
aVproblems
p1722
aVprocess
p1723
aVprocessed
p1724
aVprocessor
p1725
aVproduce
p1726
aVproduced
p1727
aVproduct
p1728
aVproduction
p1729
aVproducts
p1730
aVprofessional
p1731
aVprofessor
p1732
aVprofile
p1733
aVprogram
p1734
aVprograms
p1735
aVproject
p1736
aVprojects
p1737
aVpromise
p1738
aVproof
p1739
aVproper
p1740
aVproperly
p1741
aVproperties
p1742
aVprotect
p1743
aVprotein
p1744
aVprovide
p1745
aVprovided
p1746
aVprovides
p1747
aVpublic
p1748
aVpublished
p1749
aVpudding
p1750
aVpuff
p1751
aVpull
p1752
aVpulled
p1753
aVpulse
p1754
aVpumpkin
p1755
aVpurchase
p1756
aVpure
p1757
aVpuree
p1758
aVpurpose
p1759
aVpush
p1760
aVputting
p1761
aVquality
p1762
aVquarter
p1763
aVqueen
p1764
aVqueries
p1765
aVquestion
p1766
aVquestions
p1767
aVquick
p1768
aVquickly
p1769
aVquinoa
p1770
aVquite
p1771
aVrace
p1772
aVrack
p1773
aVradio
p1774
aVraise
p1775
aVran
p1776
aVrandom
p1777
aVrange
p1778
aVraspberry
p1779
aVrate
p1780
aVraw
p1781
aVreach
p1782
aVread
p1783
aVreaders
p1784
aVreading
p1785
aVready
p1786
aVreal
p1787
aVreality
p1788
aVrealize
p1789
aVreally
p1790
aVreason
p1791
aVreasons
p1792
aVreceive
p1793
aVreceived
p1794
aVrecent
p1795
aVrecently
p1796
aVrecipe
p1797
aVrecipes
p1798
aVrecommend
p1799
aVrecommended
p1800
aVrecord
p1801
aVrecords
p1802
aVred
p1803
aVreduce
p1804
aVreduced
p1805
aVrefrigerate
p1806
aVrefrigerator
p1807
aVregarding
p1808
aVregular
p1809
aVregularly
p1810
aVrelated
p1811
aVrelationship
p1812
aVrelatively
p1813
aVrelax
p1814
aVrelease
p1815
aVreleased
p1816
aVrelief
p1817
aVremain
p1818
aVremaining
p1819
aVremedies
p1820
aVremember
p1821
aVremove
p1822
aVremoved
p1823
aVrepeat
p1824
aVreplace
p1825
aVreport
p1826
aVreported
p1827
aVreports
p1828
aVrequire
p1829
aVrequired
p1830
aVrequires
p1831
aVresearch
p1832
aVresearchers
p1833
aVreserved
p1834
aVresponse
p1835
aVresponsible
p1836
aVrest
p1837
aVrestaurant
p1838
aVrestaurants
p1839
aVresult
p1840
aVresults
p1841
aVreturn
p1842
aVreuters
p1843
aVreview
p1844
aVreviews
p1845
aVribs
p1846
aVrice
p1847
aVrich
p1848
aVricotta
p1849
aVrid
p1850
aVright
p1851
aVrights
p1852
aVring
p1853
aVrings
p1854
aVrinse
p1855
aVripe
p1856
aVrise
p1857
aVrisk
p1858
aVroad
p1859
aVroast
p1860
aVroasted
p1861
aVrock
p1862
aVrole
p1863
aVroll
p1864
aVrolled
p1865
aVrolling
p1866
aVrolls
p1867
aVroom
p1868
aVroot
p1869
aVrose
p1870
aVrosemary
p1871
aVroughly
p1872
aVround
p1873
aVroutine
p1874
aVrow
p1875
aVrsquo
p1876
aVrss
p1877
aVrub
p1878
aVrule
p1879
aVrules
p1880
aVrum
p1881
aVrun
p1882
aVrunning
p1883
aVruns
p1884
aVryan
p1885
aVsafe
p1886
aVsafety
p1887
aVsaid
p1888
aVsalad
p1889
aVsalads
p1890
aVsale
p1891
aVsalmon
p1892
aVsalsa
p1893
aVsalt
p1894
aVsalt1
p1895
aVsalted
p1896
aVsalty
p1897
aVsamsung
p1898
aVsan
p1899
aVsandwich
p1900
aVsandwiches
p1901
aVsarah
p1902
aVsaturated
p1903
aVsaturday
p1904
aVsauce
p1905
aVsaucepan
p1906
aVsausage
p1907
aVsaute
p1908
aVsave
p1909
aVsaving
p1910
aVsavory
p1911
aVsaw
p1912
aVsay
p1913
aVsaying
p1914
aVsays
p1915
aVscale
p1916
aVschedule
p1917
aVschool
p1918
aVscience
p1919
aVscientific
p1920
aVscientists
p1921
aVscones
p1922
aVscoop
p1923
aVscore
p1924
aVscrape
p1925
aVscreen
p1926
aVsea
p1927
aVseafood
p1928
aVsearch
p1929
aVseason
p1930
aVseasoning
p1931
aVsecond
p1932
aVseconds
p1933
aVsecret
p1934
aVsection
p1935
aVsecurity
p1936
aVseed
p1937
aVseeds
p1938
aVseeing
p1939
aVseen
p1940
aVselect
p1941
aVself
p1942
aVsell
p1943
aVsemi
p1944
aVsend
p1945
aVsense
p1946
aVsent
p1947
aVseparate
p1948
aVseptember
p1949
aVseries
p1950
aVseriously
p1951
aVserve
p1952
aVserved
p1953
aVserves
p1954
aVservice
p1955
aVservices
p1956
aVserving
p1957
aVservings
p1958
aVsesame
p1959
aVset
p1960
aVsets
p1961
aVsetting
p1962
aVseven
p1963
aVsex
p1964
aVsexual
p1965
aVsexy
p1966
aVshake
p1967
aVshape
p1968
aVshaped
p1969
aVshare
p1970
aVshared
p1971
aVsharing
p1972
aVsharp
p1973
aVsheet
p1974
aVsheets
p1975
aVshell
p1976
aVshirt
p1977
aVshoe
p1978
aVshoes
p1979
aVshop
p1980
aVshopping
p1981
aVshort
p1982
aVshortening
p1983
aVshot
p1984
aVshots
p1985
aVshoulder
p1986
aVshouldn
p1987
aVshowed
p1988
aVshowing
p1989
aVshown
p1990
aVshows
p1991
aVshredded
p1992
aVshrimp
p1993
aVsi
p1994
aVsick
p1995
aVsides
p1996
aVsift
p1997
aVsign
p1998
aVsignificant
p1999
aVsigns
p2000
aVsilver
p2001
aVsimilar
p2002
aVsimmer
p2003
aVsimple
p2004
aVsimply
p2005
aVsingle
p2006
aVsister
p2007
aVsit
p2008
aVsite
p2009
aVsites
p2010
aVsitting
p2011
aVsituation
p2012
aVsize
p2013
aVsized
p2014
aVskillet
p2015
aVskills
p2016
aVskin
p2017
aVskip
p2018
aVsleep
p2019
aVsleeping
p2020
aVslice
p2021
aVsliced
p2022
aVslices
p2023
aVslide
p2024
aVslightly
p2025
aVslow
p2026
aVslowly
p2027
aVsmall
p2028
aVsmaller
p2029
aVsmart
p2030
aVsmell
p2031
aVsmile
p2032
aVsmith
p2033
aVsmoke
p2034
aVsmoked
p2035
aVsmoking
p2036
aVsmooth
p2037
aVsmoothie
p2038
aVsnack
p2039
aVsnacks
p2040
aVsnow
p2041
aVsoak
p2042
aVsoccer
p2043
aVsocial
p2044
aVsociety
p2045
aVsoda
p2046
aVsodium
p2047
aVsoft
p2048
aVsoftened
p2049
aVsoftware
p2050
aVsolar
p2051
aVsold
p2052
aVsolid
p2053
aVsolution
p2054
aVson
p2055
aVsong
p2056
aVsoon
p2057
aVsorry
p2058
aVsort
p2059
aVsound
p2060
aVsounds
p2061
aVsoup
p2062
aVsour
p2063
aVsource
p2064
aVsources
p2065
aVsouth
p2066
aVsouthern
p2067
aVsoy
p2068
aVspace
p2069
aVspaghetti
p2070
aVspan
p2071
aVspatula
p2072
aVspecial
p2073
aVspecific
p2074
aVspeed
p2075
aVspend
p2076
aVspending
p2077
aVspent
p2078
aVspice
p2079
aVspices
p2080
aVspicy
p2081
aVspinach
p2082
aVsplit
p2083
aVspoon
p2084
aVsport
p2085
aVsports
p2086
aVspot
p2087
aVspray
p2088
aVspread
p2089
aVspring
p2090
aVsprinkle
p2091
aVsquare
p2092
aVsquares
p2093
aVsquash
p2094
aVsqueeze
p2095
aVsrc
p2096
aVst
p2097
aVstadium
p2098
aVstaff
p2099
aVstage
p2100
aVstand
p2101
aVstandard
p2102
aVstanding
p2103
aVstar
p2104
aVstars
p2105
aVstart
p2106
aVstarted
p2107
aVstarting
p2108
aVstarts
p2109
aVstate
p2110
aVstatement
p2111
aVstates
p2112
aVstatic
p2113
aVstay
p2114
aVsteak
p2115
aVstem
p2116
aVstep
p2117
aVsteps
p2118
aVsteve
p2119
aVstewart
p2120
aVstick
p2121
aVsticks
p2122
aVsticky
p2123
aVstir
p2124
aVstirring
p2125
aVstock
p2126
aVstomach
p2127
aVstone
p2128
aVstop
p2129
aVstorage
p2130
aVstore
p2131
aVstored
p2132
aVstores
p2133
aVstories
p2134
aVstory
p2135
aVstove
p2136
aVstraight
p2137
aVstrain
p2138
aVstrawberries
p2139
aVstrawberry
p2140
aVstreet
p2141
aVstrength
p2142
aVstress
p2143
aVstretch
p2144
aVstrips
p2145
aVstrong
p2146
aVstudent
p2147
aVstudents
p2148
aVstudies
p2149
aVstudy
p2150
aVstuff
p2151
aVstuffed
p2152
aVstyle
p2153
aVsub
p2154
aVsubscribe
p2155
aVsubstitute
p2156
aVsuccess
p2157
aVsuccessful
p2158
aVsugar
p2159
aVsugar1
p2160
aVsugars
p2161
aVsuggest
p2162
aVsuggested
p2163
aVsuggests
p2164
aVsuit
p2165
aVsummer
p2166
aVsun
p2167
aVsunday
p2168
aVsuper
p2169
aVsupplements
p2170
aVsupply
p2171
aVsupport
p2172
aVsure
p2173
aVsurface
p2174
aVsurgery
p2175
aVsurprise
p2176
aVsurprised
p2177
aVsushi
p2178
aVsweet
p2179
aVsweetened
p2180
aVswf
p2181
aVswim
p2182
aVswimming
p2183
aVswimsuit
p2184
aVsymptoms
p2185
aVsyrup
p2186
aVsystems
p2187
aVtable
p2188
aVtablespoon
p2189
aVtablespoons
p2190
aVtablet
p2191
aVtaco
p2192
aVtacos
p2193
aVtagged
p2194
aVtags
p2195
aVtaken
p2196
aVtakes
p2197
aVtaking
p2198
aVtalk
p2199
aVtalking
p2200
aVtap
p2201
aVtape
p2202
aVtarget
p2203
aVtart
p2204
aVtask
p2205
aVtaste
p2206
aVtasted
p2207
aVtastes
p2208
aVtasty
p2209
aVtbs
p2210
aVtbsp
p2211
aVtea
p2212
aVteam
p2213
aVteams
p2214
aVteaspoon
p2215
aVteaspoons
p2216
aVtech
p2217
aVtechnique
p2218
aVtechniques
p2219
aVtechnologies
p2220
aVtechnology
p2221
aVteeth
p2222
aVtelevision
p2223
aVtell
p2224
aVtells
p2225
aVtemperature
p2226
aVtend
p2227
aVtender
p2228
aVtennis
p2229
aVterm
p2230
aVterminal01
p2231
aVterms
p2232
aVtest
p2233
aVtested
p2234
aVtesting
p2235
aVtests
p2236
aVtexas
p2237
aVtext
p2238
aVtexture
p2239
aVthai
p2240
aVthank
p2241
aVthanks
p2242
aVthanksgiving
p2243
aVtherapy
p2244
aVthing
p2245
aVthings
p2246
aVthink
p2247
aVthinking
p2248
aVthinly
p2249
aVthoroughly
p2250
aVthought
p2251
aVthoughts
p2252
aVthousands
p2253
aVthrow
p2254
aVthursday
p2255
aVthyme
p2256
aVtie
p2257
aVtight
p2258
aVtime
p2259
aVtimes
p2260
aVtin
p2261
aVtiny
p2262
aVtip
p2263
aVtips
p2264
aVtired
p2265
aVtitle
p2266
aVtoast
p2267
aVtoasted
p2268
aVtoday
p2269
aVtofu
p2270
aVtold
p2271
aVtom
p2272
aVtomato
p2273
aVtomatoes
p2274
aVtonight
p2275
aVtook
p2276
aVtool
p2277
aVtools
p2278
aVtoothpick
p2279
aVtopped
p2280
aVtopping
p2281
aVtoppings
p2282
aVtops
p2283
aVtortilla
p2284
aVtortillas
p2285
aVtoss
p2286
aVtotal
p2287
aVtotally
p2288
aVtouch
p2289
aVtough
p2290
aVtowel
p2291
aVtown
p2292
aVtrack
p2293
aVtracking
p2294
aVtraditional
p2295
aVtraffic
p2296
aVtrain
p2297
aVtraining
p2298
aVtransfer
p2299
aVtravel
p2300
aVtray
p2301
aVtreat
p2302
aVtreatment
p2303
aVtreatments
p2304
aVtreats
p2305
aVtree
p2306
aVtrend
p2307
aVtrends
p2308
aVtrial
p2309
aVtrick
p2310
aVtried
p2311
aVtrip
p2312
aVtrouble
p2313
aVtrue
p2314
aVtruffles
p2315
aVtruly
p2316
aVtrust
p2317
aVtruth
p2318
aVtry
p2319
aVtrying
p2320
aVtsp
p2321
aVtuesday
p2322
aVturkey
p2323
aVturn
p2324
aVturned
p2325
aVturning
p2326
aVturns
p2327
aVtv
p2328
aVtwice
p2329
aVtwist
p2330
aVtwitter
p2331
aVtype
p2332
aVtypes
p2333
aVtypical
p2334
aVtypically
p2335
aVuk
p2336
aVultimate
p2337
aVunderstand
p2338
aVunfortunately
p2339
aVunique
p2340
aVunited
p2341
aVuniversity
p2342
aVunless
p2343
aVunlike
p2344
aVunsalted
p2345
aVunsweetened
p2346
aVupcoming
p2347
aVupdate
p2348
aVupdated
p2349
aVupdates
p2350
aVupper
p2351
aVups
p2352
aVuri
p2353
aVurl
p2354
aVusa
p2355
aVuse
p2356
aVused
p2357
aVuseful
p2358
aVuser
p2359
aVusername
p2360
aVusers
p2361
aVuses
p2362
aVusing
p2363
aVusual
p2364
aVusually
p2365
aVvalue
p2366
aVvanilla
p2367
aVvar
p2368
aVvariety
p2369
aVvarious
p2370
aVve
p2371
aVvegan
p2372
aVvegetable
p2373
aVvegetables
p2374
aVvegetarian
p2375
aVveggie
p2376
aVveggies
p2377
aVvehicle
p2378
aVversion
p2379
aVvideo
p2380
aVvideos
p2381
aVview
p2382
aVviews
p2383
aVvinegar
p2384
aVvintage
p2385
aVviral
p2386
aVvirgin
p2387
aVvision
p2388
aVvisit
p2389
aVvitamin
p2390
aVvitamins
p2391
aVvogue
p2392
aVvoice
p2393
aVvs
p2394
aVwait
p2395
aVwaiting
p2396
aVwake
p2397
aVwalk
p2398
aVwalking
p2399
aVwall
p2400
aVwalnuts
p2401
aVwant
p2402
aVwanted
p2403
aVwants
p2404
aVwar
p2405
aVwarm
p2406
aVwash
p2407
aVwashington
p2408
aVwasn
p2409
aVwaste
p2410
aVwatch
p2411
aVwatching
p2412
aVwater
p2413
aVway
p2414
aVways
p2415
aVwear
p2416
aVwearing
p2417
aVweather
p2418
aVweb
p2419
aVwebsite
p2420
aVwedding
p2421
aVwednesday
p2422
aVweek
p2423
aVweekend
p2424
aVweekly
p2425
aVweeks
p2426
aVweight
p2427
aVweird
p2428
aVwelcome
p2429
aVwent
p2430
aVwest
p2431
aVwet
p2432
aVwheat
p2433
aVwhip
p2434
aVwhipped
p2435
aVwhisk
p2436
aVwhite
p2437
aVwhites
p2438
aVwide
p2439
aVwidth
p2440
aVwife
p2441
aVwii
p2442
aVwild
p2443
aVwin
p2444
aVwind
p2445
aVwindow
p2446
aVwindows
p2447
aVwine
p2448
aVwings
p2449
aVwinner
p2450
aVwinning
p2451
aVwinter
p2452
aVwire
p2453
aVwish
p2454
aVwoman
p2455
aVwomen
p2456
aVwon
p2457
aVwonder
p2458
aVwonderful
p2459
aVwood
p2460
aVwooden
p2461
aVword
p2462
aVwords
p2463
aVwork
p2464
aVworked
p2465
aVworking
p2466
aVworkout
p2467
aVworkouts
p2468
aVworks
p2469
aVworld
p2470
aVworry
p2471
aVworse
p2472
aVworst
p2473
aVworth
p2474
aVwouldn
p2475
aVwrap
p2476
aVwrapped
p2477
aVwrite
p2478
aVwriting
p2479
aVwritten
p2480
aVwrong
p2481
aVwrote
p2482
aVwww
p2483
aVyeah
p2484
aVyear
p2485
aVyears
p2486
aVyeast
p2487
aVyellow
p2488
aVyes
p2489
aVyesterday
p2490
aVyield
p2491
aVyoga
p2492
aVyogurt
p2493
aVyolk
p2494
aVyolks
p2495
aVyork
p2496
aVyoung
p2497
aVyoutube
p2498
aVyummy
p2499
aVzest
p2500
aVzucchini
p2501
a.